; ModuleID = 'source-C-CXX/41/1747.cpp'
source_filename = "source-C-CXX/41/1747.cpp"
target datalayout = "e-m:e-p270:32:32-p271:32:32-p272:64:64-i64:64-f80:128-n8:16:32:64-S128"
target triple = "x86_64-pc-linux-gnu"

%"class.std::ios_base::Init" = type { i8 }
%"class.std::basic_istream" = type { i32 (...)**, i64, %"class.std::basic_ios" }
%"class.std::basic_ios" = type { %"class.std::ios_base", %"class.std::basic_ostream"*, i8, i8, %"class.std::basic_streambuf"*, %"class.std::ctype"*, %"class.std::num_put"*, %"class.std::num_get"* }
%"class.std::ios_base" = type { i32 (...)**, i64, i64, i32, i32, i32, %"struct.std::ios_base::_Callback_list"*, %"struct.std::ios_base::_Words", [8 x %"struct.std::ios_base::_Words"], i32, %"struct.std::ios_base::_Words"*, %"class.std::locale" }
%"struct.std::ios_base::_Callback_list" = type { %"struct.std::ios_base::_Callback_list"*, void (i32, %"class.std::ios_base"*, i32)*, i32, i32 }
%"struct.std::ios_base::_Words" = type { i8*, i64 }
%"class.std::locale" = type { %"class.std::locale::_Impl"* }
%"class.std::locale::_Impl" = type { i32, %"class.std::locale::facet"**, i64, %"class.std::locale::facet"**, i8** }
%"class.std::locale::facet" = type <{ i32 (...)**, i32, [4 x i8] }>
%"class.std::basic_ostream" = type { i32 (...)**, %"class.std::basic_ios" }
%"class.std::basic_streambuf" = type { i32 (...)**, i8*, i8*, i8*, i8*, i8*, i8*, %"class.std::locale" }
%"class.std::ctype" = type <{ %"class.std::locale::facet.base", [4 x i8], %struct.__locale_struct*, i8, [7 x i8], i32*, i32*, i16*, i8, [256 x i8], [256 x i8], i8, [6 x i8] }>
%"class.std::locale::facet.base" = type <{ i32 (...)**, i32 }>
%struct.__locale_struct = type { [13 x %struct.__locale_data*], i16*, i32*, i32*, [13 x i8*] }
%struct.__locale_data = type opaque
%"class.std::num_put" = type { %"class.std::locale::facet.base", [4 x i8] }
%"class.std::num_get" = type { %"class.std::locale::facet.base", [4 x i8] }

@_ZStL8__ioinit = internal global %"class.std::ios_base::Init" zeroinitializer, align 1
@__dso_handle = external hidden global i8
@_ZSt3cin = external global %"class.std::basic_istream", align 8
@_ZSt4cout = external global %"class.std::basic_ostream", align 8
@.str = private unnamed_addr constant [2 x i8] c" \00", align 1
@llvm.global_ctors = appending global [1 x { i32, void ()*, i8* }] [{ i32, void ()*, i8* } { i32 65535, void ()* @_GLOBAL__sub_I_1747.cpp, i8* null }]

declare void @_ZNSt8ios_base4InitC1Ev(%"class.std::ios_base::Init"* nonnull align 1 dereferenceable(1)) unnamed_addr #0

; Function Attrs: nounwind
declare void @_ZNSt8ios_base4InitD1Ev(%"class.std::ios_base::Init"* nonnull align 1 dereferenceable(1)) unnamed_addr #1

; Function Attrs: nofree nounwind
declare i32 @__cxa_atexit(void (i8*)*, i8*, i8*) local_unnamed_addr #2

; Function Attrs: mustprogress norecurse sspstrong uwtable
define dso_local i32 @main() local_unnamed_addr #3 {
  %1 = alloca i32, align 4
  %2 = alloca i32, align 4
  %3 = bitcast i32* %1 to i8*
  call void @llvm.lifetime.start.p0i8(i64 4, i8* nonnull %3) #8
  %4 = bitcast i32* %2 to i8*
  call void @llvm.lifetime.start.p0i8(i64 4, i8* nonnull %4) #8
  %5 = call nonnull align 8 dereferenceable(16) %"class.std::basic_istream"* @_ZNSirsERi(%"class.std::basic_istream"* nonnull align 8 dereferenceable(16) @_ZSt3cin, i32* nonnull align 4 dereferenceable(4) %1)
  %6 = load i32, i32* %1, align 4, !tbaa !5
  %7 = zext i32 %6 to i64
  %8 = call i8* @llvm.stacksave()
  %9 = alloca i32, i64 %7, align 16
  %10 = load i32, i32* %1, align 4, !tbaa !5
  %11 = icmp sgt i32 %10, 0
  br i1 %11, label %95, label %12

12:                                               ; preds = %95, %0
  %13 = call nonnull align 8 dereferenceable(16) %"class.std::basic_istream"* @_ZNSirsERi(%"class.std::basic_istream"* nonnull align 8 dereferenceable(16) @_ZSt3cin, i32* nonnull align 4 dereferenceable(4) %2)
  %14 = load i32, i32* %1, align 4, !tbaa !5
  %15 = load i32, i32* %2, align 4
  %16 = icmp sgt i32 %14, 0
  br i1 %16, label %17, label %115

17:                                               ; preds = %12
  %18 = zext i32 %14 to i64
  %19 = icmp ult i32 %14, 8
  br i1 %19, label %92, label %20

20:                                               ; preds = %17
  %21 = and i64 %18, 4294967288
  %22 = insertelement <4 x i32> poison, i32 %15, i32 0
  %23 = shufflevector <4 x i32> %22, <4 x i32> poison, <4 x i32> zeroinitializer
  %24 = insertelement <4 x i32> poison, i32 %15, i32 0
  %25 = shufflevector <4 x i32> %24, <4 x i32> poison, <4 x i32> zeroinitializer
  %26 = add nsw i64 %21, -8
  %27 = lshr exact i64 %26, 3
  %28 = add nuw nsw i64 %27, 1
  %29 = and i64 %28, 1
  %30 = icmp eq i64 %26, 0
  br i1 %30, label %66, label %31

31:                                               ; preds = %20
  %32 = and i64 %28, 4611686018427387902
  br label %33

33:                                               ; preds = %33, %31
  %34 = phi i64 [ 0, %31 ], [ %63, %33 ]
  %35 = phi <4 x i32> [ zeroinitializer, %31 ], [ %61, %33 ]
  %36 = phi <4 x i32> [ zeroinitializer, %31 ], [ %62, %33 ]
  %37 = phi i64 [ %32, %31 ], [ %64, %33 ]
  %38 = getelementptr inbounds i32, i32* %9, i64 %34
  %39 = bitcast i32* %38 to <4 x i32>*
  %40 = load <4 x i32>, <4 x i32>* %39, align 16, !tbaa !5
  %41 = getelementptr inbounds i32, i32* %38, i64 4
  %42 = bitcast i32* %41 to <4 x i32>*
  %43 = load <4 x i32>, <4 x i32>* %42, align 16, !tbaa !5
  %44 = icmp ne <4 x i32> %40, %23
  %45 = icmp ne <4 x i32> %43, %25
  %46 = zext <4 x i1> %44 to <4 x i32>
  %47 = zext <4 x i1> %45 to <4 x i32>
  %48 = add <4 x i32> %35, %46
  %49 = add <4 x i32> %36, %47
  %50 = or i64 %34, 8
  %51 = getelementptr inbounds i32, i32* %9, i64 %50
  %52 = bitcast i32* %51 to <4 x i32>*
  %53 = load <4 x i32>, <4 x i32>* %52, align 16, !tbaa !5
  %54 = getelementptr inbounds i32, i32* %51, i64 4
  %55 = bitcast i32* %54 to <4 x i32>*
  %56 = load <4 x i32>, <4 x i32>* %55, align 16, !tbaa !5
  %57 = icmp ne <4 x i32> %53, %23
  %58 = icmp ne <4 x i32> %56, %25
  %59 = zext <4 x i1> %57 to <4 x i32>
  %60 = zext <4 x i1> %58 to <4 x i32>
  %61 = add <4 x i32> %48, %59
  %62 = add <4 x i32> %49, %60
  %63 = add nuw i64 %34, 16
  %64 = add i64 %37, -2
  %65 = icmp eq i64 %64, 0
  br i1 %65, label %66, label %33, !llvm.loop !9

66:                                               ; preds = %33, %20
  %67 = phi <4 x i32> [ undef, %20 ], [ %61, %33 ]
  %68 = phi <4 x i32> [ undef, %20 ], [ %62, %33 ]
  %69 = phi i64 [ 0, %20 ], [ %63, %33 ]
  %70 = phi <4 x i32> [ zeroinitializer, %20 ], [ %61, %33 ]
  %71 = phi <4 x i32> [ zeroinitializer, %20 ], [ %62, %33 ]
  %72 = icmp eq i64 %29, 0
  br i1 %72, label %86, label %73

73:                                               ; preds = %66
  %74 = getelementptr inbounds i32, i32* %9, i64 %69
  %75 = getelementptr inbounds i32, i32* %74, i64 4
  %76 = bitcast i32* %75 to <4 x i32>*
  %77 = load <4 x i32>, <4 x i32>* %76, align 16, !tbaa !5
  %78 = icmp ne <4 x i32> %77, %25
  %79 = zext <4 x i1> %78 to <4 x i32>
  %80 = add <4 x i32> %71, %79
  %81 = bitcast i32* %74 to <4 x i32>*
  %82 = load <4 x i32>, <4 x i32>* %81, align 16, !tbaa !5
  %83 = icmp ne <4 x i32> %82, %23
  %84 = zext <4 x i1> %83 to <4 x i32>
  %85 = add <4 x i32> %70, %84
  br label %86

86:                                               ; preds = %66, %73
  %87 = phi <4 x i32> [ %67, %66 ], [ %85, %73 ]
  %88 = phi <4 x i32> [ %68, %66 ], [ %80, %73 ]
  %89 = add <4 x i32> %88, %87
  %90 = call i32 @llvm.vector.reduce.add.v4i32(<4 x i32> %89)
  %91 = icmp eq i64 %21, %18
  br i1 %91, label %103, label %92

92:                                               ; preds = %17, %86
  %93 = phi i64 [ 0, %17 ], [ %21, %86 ]
  %94 = phi i32 [ 0, %17 ], [ %90, %86 ]
  br label %105

95:                                               ; preds = %0, %95
  %96 = phi i64 [ %99, %95 ], [ 0, %0 ]
  %97 = getelementptr inbounds i32, i32* %9, i64 %96
  %98 = call nonnull align 8 dereferenceable(16) %"class.std::basic_istream"* @_ZNSirsERi(%"class.std::basic_istream"* nonnull align 8 dereferenceable(16) @_ZSt3cin, i32* nonnull align 4 dereferenceable(4) %97)
  %99 = add nuw nsw i64 %96, 1
  %100 = load i32, i32* %1, align 4, !tbaa !5
  %101 = sext i32 %100 to i64
  %102 = icmp slt i64 %99, %101
  br i1 %102, label %95, label %12, !llvm.loop !12

103:                                              ; preds = %105, %86
  %104 = phi i32 [ %90, %86 ], [ %112, %105 ]
  br i1 %16, label %116, label %115

105:                                              ; preds = %92, %105
  %106 = phi i64 [ %113, %105 ], [ %93, %92 ]
  %107 = phi i32 [ %112, %105 ], [ %94, %92 ]
  %108 = getelementptr inbounds i32, i32* %9, i64 %106
  %109 = load i32, i32* %108, align 4, !tbaa !5
  %110 = icmp ne i32 %109, %15
  %111 = zext i1 %110 to i32
  %112 = add nuw nsw i32 %107, %111
  %113 = add nuw nsw i64 %106, 1
  %114 = icmp eq i64 %113, %18
  br i1 %114, label %103, label %105, !llvm.loop !13

115:                                              ; preds = %129, %12, %103
  call void @llvm.stackrestore(i8* %8)
  call void @llvm.lifetime.end.p0i8(i64 4, i8* nonnull %4) #8
  call void @llvm.lifetime.end.p0i8(i64 4, i8* nonnull %3) #8
  ret i32 0

116:                                              ; preds = %103, %135
  %117 = phi i32 [ %136, %135 ], [ %15, %103 ]
  %118 = phi i64 [ %131, %135 ], [ 0, %103 ]
  %119 = phi i32 [ %130, %135 ], [ 0, %103 ]
  %120 = getelementptr inbounds i32, i32* %9, i64 %118
  %121 = load i32, i32* %120, align 4, !tbaa !5
  %122 = icmp eq i32 %121, %117
  br i1 %122, label %129, label %123

123:                                              ; preds = %116
  %124 = add nsw i32 %119, 1
  %125 = call nonnull align 8 dereferenceable(8) %"class.std::basic_ostream"* @_ZNSolsEi(%"class.std::basic_ostream"* nonnull align 8 dereferenceable(8) @_ZSt4cout, i32 %121)
  %126 = icmp slt i32 %124, %104
  br i1 %126, label %127, label %129

127:                                              ; preds = %123
  %128 = call nonnull align 8 dereferenceable(8) %"class.std::basic_ostream"* @_ZSt16__ostream_insertIcSt11char_traitsIcEERSt13basic_ostreamIT_T0_ES6_PKS3_l(%"class.std::basic_ostream"* nonnull align 8 dereferenceable(8) @_ZSt4cout, i8* nonnull getelementptr inbounds ([2 x i8], [2 x i8]* @.str, i64 0, i64 0), i64 1)
  br label %129

129:                                              ; preds = %116, %127, %123
  %130 = phi i32 [ %124, %127 ], [ %124, %123 ], [ %119, %116 ]
  %131 = add nuw nsw i64 %118, 1
  %132 = load i32, i32* %1, align 4, !tbaa !5
  %133 = sext i32 %132 to i64
  %134 = icmp slt i64 %131, %133
  br i1 %134, label %135, label %115, !llvm.loop !15

135:                                              ; preds = %129
  %136 = load i32, i32* %2, align 4, !tbaa !5
  br label %116
}

; Function Attrs: argmemonly mustprogress nofree nosync nounwind willreturn
declare void @llvm.lifetime.start.p0i8(i64 immarg, i8* nocapture) #4

declare nonnull align 8 dereferenceable(16) %"class.std::basic_istream"* @_ZNSirsERi(%"class.std::basic_istream"* nonnull align 8 dereferenceable(16), i32* nonnull align 4 dereferenceable(4)) local_unnamed_addr #0

; Function Attrs: mustprogress nofree nosync nounwind willreturn
declare i8* @llvm.stacksave() #5

; Function Attrs: argmemonly mustprogress nofree nosync nounwind willreturn
declare void @llvm.lifetime.end.p0i8(i64 immarg, i8* nocapture) #4

declare nonnull align 8 dereferenceable(8) %"class.std::basic_ostream"* @_ZNSolsEi(%"class.std::basic_ostream"* nonnull align 8 dereferenceable(8), i32) local_unnamed_addr #0

; Function Attrs: mustprogress nofree nosync nounwind willreturn
declare void @llvm.stackrestore(i8*) #5

declare nonnull align 8 dereferenceable(8) %"class.std::basic_ostream"* @_ZSt16__ostream_insertIcSt11char_traitsIcEERSt13basic_ostreamIT_T0_ES6_PKS3_l(%"class.std::basic_ostream"* nonnull align 8 dereferenceable(8), i8*, i64) local_unnamed_addr #0

; Function Attrs: sspstrong uwtable
define internal void @_GLOBAL__sub_I_1747.cpp() #6 section ".text.startup" {
  tail call void @_ZNSt8ios_base4InitC1Ev(%"class.std::ios_base::Init"* nonnull align 1 dereferenceable(1) @_ZStL8__ioinit)
  %1 = tail call i32 @__cxa_atexit(void (i8*)* bitcast (void (%"class.std::ios_base::Init"*)* @_ZNSt8ios_base4InitD1Ev to void (i8*)*), i8* getelementptr inbounds (%"class.std::ios_base::Init", %"class.std::ios_base::Init"* @_ZStL8__ioinit, i64 0, i32 0), i8* nonnull @__dso_handle) #8
  ret void
}

; Function Attrs: nofree nosync nounwind readnone willreturn
declare i32 @llvm.vector.reduce.add.v4i32(<4 x i32>) #7


!llvm.module.flags = !{!0, !1, !2, !3}
!llvm.ident = !{!4}

!0 = !{i32 1, !"wchar_size", i32 4}
!1 = !{i32 7, !"PIC Level", i32 2}
!2 = !{i32 7, !"PIE Level", i32 2}
!3 = !{i32 7, !"uwtable", i32 1}
!4 = !{!"clang version 13.0.0"}
!5 = !{!6, !6, i64 0}
!6 = !{!"int", !7, i64 0}
!7 = !{!"omnipotent char", !8, i64 0}
!8 = !{!"Simple C++ TBAA"}
!9 = distinct !{!9, !10, !11}
!10 = !{!"llvm.loop.mustprogress"}
!11 = !{!"llvm.loop.isvectorized", i32 1}
!12 = distinct !{!12, !10}
!13 = distinct !{!13, !10, !14, !11}
!14 = !{!"llvm.loop.unroll.runtime.disable"}
!15 = distinct !{!15, !10}
